target datalayout = "e-m:e-p270:32:32-p271:32:32-p272:64:64-i64:64-i128:128-f80:128-n8:16:32:64-S128"
target triple = "x86_64-pc-linux-gnu"

; Function Attrs: mustprogress uwtable
define internal void @_ZL31_shapeToArabicDigitsWithContextPDsiDsaa(ptr noundef %0, i32 noundef %1, i16 noundef zeroext %2, i8 noundef signext %3, i8 noundef signext %4) #0 {
  %6 = alloca ptr, align 8
  %7 = alloca i32, align 4
  %8 = alloca i16, align 2
  %9 = alloca i8, align 1
  %10 = alloca i8, align 1
  %11 = alloca i32, align 4
  %12 = alloca i16, align 2
  store ptr %0, ptr %6, align 8, !tbaa !3
  store i32 %1, ptr %7, align 4, !tbaa !8
  store i16 %2, ptr %8, align 2, !tbaa !16
  store i8 %3, ptr %9, align 1, !tbaa !27
  store i8 %4, ptr %10, align 1, !tbaa !27
  call void @llvm.lifetime.start.p0(i64 4, ptr %11) #8
  call void @llvm.lifetime.start.p0(i64 2, ptr %12) #8
  %13 = load i16, ptr %8, align 2, !tbaa !16
  %14 = zext i16 %13 to i32
  %15 = sub nsw i32 %14, 48
  %16 = trunc i32 %15 to i16
  store i16 %16, ptr %8, align 2, !tbaa !16
  %17 = load i8, ptr %9, align 1, !tbaa !27
  %18 = icmp ne i8 %17, 0
  br i1 %18, label %19, label %61

19:                                               ; preds = %5
  store i32 0, ptr %11, align 4, !tbaa !8
  br label %20

20:                                               ; preds = %57, %19
  %21 = load i32, ptr %11, align 4, !tbaa !8
  %22 = load i32, ptr %7, align 4, !tbaa !8
  %23 = icmp slt i32 %21, %22
  br i1 %23, label %24, label %60

24:                                               ; preds = %20
  %25 = load ptr, ptr %6, align 8, !tbaa !3
  %26 = load i32, ptr %11, align 4, !tbaa !8
  %27 = sext i32 %26 to i64
  %28 = getelementptr inbounds i16, ptr %25, i64 %27
  %29 = load i16, ptr %28, align 2, !tbaa !16
  store i16 %29, ptr %12, align 2, !tbaa !16
  %30 = load i16, ptr %12, align 2, !tbaa !16
  %31 = zext i16 %30 to i32
  %32 = call i32 @ubidi_getClass_77(i32 noundef %31)
  switch i32 %32, label %55 [
    i32 0, label %33
    i32 1, label %33
    i32 13, label %34
    i32 2, label %35
  ]

33:                                               ; preds = %24, %24
  store i8 0, ptr %10, align 1, !tbaa !27
  br label %56

34:                                               ; preds = %24
  store i8 1, ptr %10, align 1, !tbaa !27
  br label %56

35:                                               ; preds = %24
  %36 = load i8, ptr %10, align 1, !tbaa !27
  %37 = icmp ne i8 %36, 0
  br i1 %37, label %38, label %54

38:                                               ; preds = %35
  %39 = load i16, ptr %12, align 2, !tbaa !16
  %40 = zext i16 %39 to i32
  %41 = sub nsw i32 %40, 48
  %42 = icmp ult i32 %41, 10
  br i1 %42, label %43, label %54

43:                                               ; preds = %38
  %44 = load i16, ptr %8, align 2, !tbaa !16
  %45 = zext i16 %44 to i32
  %46 = load i16, ptr %12, align 2, !tbaa !16
  %47 = zext i16 %46 to i32
  %48 = add nsw i32 %45, %47
  %49 = trunc i32 %48 to i16
  %50 = load ptr, ptr %6, align 8, !tbaa !3
  %51 = load i32, ptr %11, align 4, !tbaa !8
  %52 = sext i32 %51 to i64
  %53 = getelementptr inbounds i16, ptr %50, i64 %52
  store i16 %49, ptr %53, align 2, !tbaa !16
  br label %54

54:                                               ; preds = %43, %38, %35
  br label %56

55:                                               ; preds = %24
  br label %56

56:                                               ; preds = %55, %54, %34, %33
  br label %57

57:                                               ; preds = %56
  %58 = load i32, ptr %11, align 4, !tbaa !8
  %59 = add nsw i32 %58, 1
  store i32 %59, ptr %11, align 4, !tbaa !8
  br label %20, !llvm.loop !41

60:                                               ; preds = %20
  br label %101

61:                                               ; preds = %5
  %62 = load i32, ptr %7, align 4, !tbaa !8
  store i32 %62, ptr %11, align 4, !tbaa !8
  br label %63

63:                                               ; preds = %99, %61
  %64 = load i32, ptr %11, align 4, !tbaa !8
  %65 = icmp sgt i32 %64, 0
  br i1 %65, label %66, label %100

66:                                               ; preds = %63
  %67 = load ptr, ptr %6, align 8, !tbaa !3
  %68 = load i32, ptr %11, align 4, !tbaa !8
  %69 = add nsw i32 %68, -1
  store i32 %69, ptr %11, align 4, !tbaa !8
  %70 = sext i32 %69 to i64
  %71 = getelementptr inbounds i16, ptr %67, i64 %70
  %72 = load i16, ptr %71, align 2, !tbaa !16
  store i16 %72, ptr %12, align 2, !tbaa !16
  %73 = load i16, ptr %12, align 2, !tbaa !16
  %74 = zext i16 %73 to i32
  %75 = call i32 @ubidi_getClass_77(i32 noundef %74)
  switch i32 %75, label %98 [
    i32 0, label %76
    i32 1, label %76
    i32 13, label %77
    i32 2, label %78
  ]

76:                                               ; preds = %66, %66
  store i8 0, ptr %10, align 1, !tbaa !27
  br label %99

77:                                               ; preds = %66
  store i8 1, ptr %10, align 1, !tbaa !27
  br label %99

78:                                               ; preds = %66
  %79 = load i8, ptr %10, align 1, !tbaa !27
  %80 = icmp ne i8 %79, 0
  br i1 %80, label %81, label %97

81:                                               ; preds = %78
  %82 = load i16, ptr %12, align 2, !tbaa !16
  %83 = zext i16 %82 to i32
  %84 = sub nsw i32 %83, 48
  %85 = icmp ult i32 %84, 10
  br i1 %85, label %86, label %97

86:                                               ; preds = %81
  %87 = load i16, ptr %8, align 2, !tbaa !16
  %88 = zext i16 %87 to i32
  %89 = load i16, ptr %12, align 2, !tbaa !16
  %90 = zext i16 %89 to i32
  %91 = add nsw i32 %88, %90
  %92 = trunc i32 %91 to i16
  %93 = load ptr, ptr %6, align 8, !tbaa !3
  %94 = load i32, ptr %11, align 4, !tbaa !8
  %95 = sext i32 %94 to i64
  %96 = getelementptr inbounds i16, ptr %93, i64 %95
  store i16 %92, ptr %96, align 2, !tbaa !16
  br label %97

97:                                               ; preds = %86, %81, %78
  br label %99

98:                                               ; preds = %66
  br label %99

99:                                               ; preds = %98, %97, %77, %76
  br label %63, !llvm.loop !42

100:                                              ; preds = %63
  br label %101

101:                                              ; preds = %100, %60
  call void @llvm.lifetime.end.p0(i64 2, ptr %12) #8
  call void @llvm.lifetime.end.p0(i64 4, ptr %11) #8
  ret void
}