; Function Attrs: mustprogress uwtable
define internal fastcc void @_ZL31_shapeToArabicDigitsWithContextPDsiDsaa(ptr noundef captures(none) %0, i32 noundef %1, i16 noundef zeroext range(i16 0, 1777) %2, i8 noundef signext range(i8 0, 2) %3, i8 noundef signext range(i8 0, 2) %4) unnamed_addr #0 {
  %6 = add nsw i16 %2, -48
  %.not = icmp eq i8 %3, 0
  %7 = icmp sgt i32 %1, 0
  br i1 %.not, label %.preheader, label %.preheader28

.preheader28:                                     ; preds = %5
  br i1 %7, label %.lr.ph.preheader, label %.loopexit

.lr.ph.preheader:                                 ; preds = %.preheader28
  %wide.trip.count = zext nneg i32 %1 to i64
  br label %.lr.ph

.preheader:                                       ; preds = %5
  br i1 %7, label %.lr.ph34.preheader, label %.loopexit

.lr.ph34.preheader:                               ; preds = %.preheader
  %8 = zext nneg i32 %1 to i64
  br label %.lr.ph34

.lr.ph:                                           ; preds = %.lr.ph.preheader, %21
  %indvars.iv = phi i64 [ 0, %.lr.ph.preheader ], [ %indvars.iv.next, %21 ]
  %.02430 = phi i8 [ %4, %.lr.ph.preheader ], [ %.125, %21 ]
  %9 = getelementptr inbounds nuw i16, ptr %0, i64 %indvars.iv
  %10 = load i16, ptr %9, align 2, !tbaa !9
  %11 = zext i16 %10 to i32
  %12 = tail call i32 @ubidi_getClass_77(i32 noundef %11)
  switch i32 %12, label %21 [
    i32 0, label %13
    i32 1, label %13
    i32 13, label %14
    i32 2, label %15
  ]

13:                                               ; preds = %.lr.ph, %.lr.ph
  br label %21

14:                                               ; preds = %.lr.ph
  br label %21

15:                                               ; preds = %.lr.ph
  %.not27 = icmp eq i8 %.02430, 0
  br i1 %.not27, label %21, label %16

16:                                               ; preds = %15
  %17 = add i16 %10, -48
  %18 = icmp ult i16 %17, 10
  br i1 %18, label %19, label %21

19:                                               ; preds = %16
  %20 = add nsw i16 %10, %6
  store i16 %20, ptr %9, align 2, !tbaa !9
  br label %21

21:                                               ; preds = %13, %14, %19, %16, %15, %.lr.ph
  %.125 = phi i8 [ %.02430, %.lr.ph ], [ 1, %19 ], [ 1, %16 ], [ 0, %15 ], [ 1, %14 ], [ 0, %13 ]
  %indvars.iv.next = add nuw nsw i64 %indvars.iv, 1
  %exitcond.not = icmp eq i64 %indvars.iv.next, %wide.trip.count
  br i1 %exitcond.not, label %.loopexit, label %.lr.ph, !llvm.loop !33

.lr.ph34:                                         ; preds = %.lr.ph34.preheader, %34
  %indvars.iv36 = phi i64 [ %8, %.lr.ph34.preheader ], [ %indvars.iv.next37, %34 ]
  %.232 = phi i8 [ %4, %.lr.ph34.preheader ], [ %.3, %34 ]
  %indvars.iv.next37 = add nsw i64 %indvars.iv36, -1
  %22 = getelementptr inbounds nuw i16, ptr %0, i64 %indvars.iv.next37
  %23 = load i16, ptr %22, align 2, !tbaa !9
  %24 = zext i16 %23 to i32
  %25 = tail call i32 @ubidi_getClass_77(i32 noundef %24)
  switch i32 %25, label %34 [
    i32 0, label %26
    i32 1, label %26
    i32 13, label %27
    i32 2, label %28
  ]

26:                                               ; preds = %.lr.ph34, %.lr.ph34
  br label %34

27:                                               ; preds = %.lr.ph34
  br label %34

28:                                               ; preds = %.lr.ph34
  %.not26 = icmp eq i8 %.232, 0
  br i1 %.not26, label %34, label %29

29:                                               ; preds = %28
  %30 = add i16 %23, -48
  %31 = icmp ult i16 %30, 10
  br i1 %31, label %32, label %34

32:                                               ; preds = %29
  %33 = add nsw i16 %23, %6
  store i16 %33, ptr %22, align 2, !tbaa !9
  br label %34

34:                                               ; preds = %.lr.ph34, %28, %29, %32, %27, %26
  %.3 = phi i8 [ %.232, %.lr.ph34 ], [ 1, %32 ], [ 1, %29 ], [ 0, %28 ], [ 1, %27 ], [ 0, %26 ]
  %35 = icmp samesign ugt i64 %indvars.iv36, 1
  br i1 %35, label %.lr.ph34, label %.loopexit, !llvm.loop !34

.loopexit:                                        ; preds = %21, %34, %.preheader28, %.preheader
  ret void
}